(cnumpy.core.multiarray
_reconstruct
p0
(cnumpy
ndarray
p1
(I0
tp2
S'b'
p3
tp4
Rp5
(I1
(I4
I3
tp6
cnumpy
dtype
p7
(S'f8'
p8
I0
I1
tp9
Rp10
(I3
S'<'
p11
NNNI-1
I-1
I0
tp12
bI00
S'm\xf0\x95\xab\xe5\xef\xc6?8\xaeVX6\xdc\x02\xc0N*;yh\x12\x04\xc0\xdd\x85\xff\xd7-\xc0\xca?(NI1\x9bW\x11\xc0?\xbb\x8d\x17\x1c\xe7\x0b\xc0lgo[!\x1d\xf0?>\xc10&\x1e\x0e/@>\xc10&\x1e\x0e/@>\xc10&\x1e\x0e/@_\xdb\xf4\xcai!\x1b\xc0m7\x03T\x1fM\x0c\xc0'
p13
tp14
b(lp15
F-1.7449405080809126
aF-1.275485084790358
aF-1.8001827224086722
aF-1.9323849500279549
aF-1.6677722398632207
aF-1.6537370694565101
aF-1.8981469677400609
aF-1.0814292717607923
aF-1.3231152511430453
aF-0.9984014644646427
aF-1.2766126030502924
aF-1.073338813454068
aF-1.5614374592181826
aF-1.4737507320504855
aF-1.298392565410591
aF-1.0105000195452765
aF-0.43349702574711524
aF-0.11665543376814178
aF-0.1737026680179019
aF0.2676084623705467
aF0.05183515775017276
aF0.08920809165894289
aF0.07545959864388957
aF0.04697507107793224
ag0
(g1
(I0
tp16
g3
tp17
Rp18
(I1
(I4
I4
tp19
g10
I00
S'\x00\x00\x00\x00\x00\x00\x00\x00J\x82\xaa\xb0\x9d\xa8\xf2?\xe2\x1b\x8e\xd7Q\xef\xee?\x92\r S\xa9_\xee?\xeag=\xbe\xb5\x1a\xee?\x00\x00\x00\x00\x00\x00\x00\x00\x0eCP\xda\xc0\xf2\xf2?\x11\x88[.\xb0\xe1\xeb?\xe5\xd9\xfe\xf8\xbf\xa1\xe2?\x8a\xa20\xbd7\xc5\xf1?\x00\x00\x00\x00\x00\x00\x00\x009\xcc]l\xd6\xc0\xf0?(\xc6\xe8o\xf8\xd3\xee?t\x99y\xf6\x85\xa5\xef?%\x06\x81\x95C\xab\xf3?\x00\x00\x00\x00\x00\x00\x00\x00'
p20
tp21
b(lp22
F-1.5748813339651107
aF-2.308812487405548
aF-2.218853532409889
aF-3.5034304567596615
aF-2.1462306431030638
aF-2.348602595664688
aF-2.158718320514081
aF-1.8396418349125865
aF-2.2373014127959765
aF-2.5163229521921653
aF-2.785279585005629
aF-1.8738728122925052
aF-2.4519844913018654
aF-2.7370206168101814
aF-1.9438730232080044
aF-2.127329976495172
aF-1.4130538147431007
aF-0.6661792698998656
aF-0.23566222269255557
aF-0.015081697223093887
aF-0.0727291857206382
aF-0.18358837518773582
a(lp23
F-1.6761367063402326
aF-1.5984080037409931
aF-2.536853790155296
aF-9.782499515765968
aF-3.1382473654725533
aF-2.9364926138765797
aF-2.6765675617569844
aF-2.64896967513462
aF-3.870184134570509
aF-3.07228487295125
aF-2.3345390965758552
aF-1.774467802174303
aF-2.53616203065335
aF-2.3445740368970407
aF-1.980793331852111
aF-1.4604738325872804
aF-1.0000248898284392
aF-0.47027347310253687
aF-0.2938502330965032
aF-0.03447539527052514
aF-0.016154290336073122
aF0.10327323572701456
aF0.03474274885653059
aF0.04129241238270367
a(lp24
F0.90547014
aF1.17584078
aF0.90038093
aF1.01830816
atp25
.